target datalayout = "e-m:e-p270:32:32-p271:32:32-p272:64:64-i64:64-i128:128-f80:128-n8:16:32:64-S128"
target triple = "x86_64-pc-linux-gnu"

%struct._xmlNode = type { ptr, i32, ptr, ptr, ptr, ptr, ptr, ptr, ptr, ptr, ptr, ptr, ptr, ptr, i16, i16 }
%struct._xmlNs = type { ptr, i32, ptr, ptr, ptr, ptr }

; Function Attrs: nounwind uwtable
define hidden ptr @dom_get_nsdecl(ptr noundef %0, ptr noundef %1) #0 {
  %3 = alloca ptr, align 8
  %4 = alloca ptr, align 8
  %5 = alloca ptr, align 8
  %6 = alloca ptr, align 8
  %7 = alloca ptr, align 8
  store ptr %0, ptr %4, align 8
  store ptr %1, ptr %5, align 8
  store ptr null, ptr %7, align 8
  %8 = load ptr, ptr %4, align 8
  %9 = icmp eq ptr %8, null
  br i1 %9, label %10, label %11

10:                                               ; preds = %2
  store ptr null, ptr %3, align 8
  br label %72

11:                                               ; preds = %2
  %12 = load ptr, ptr %5, align 8
  %13 = icmp eq ptr %12, null
  br i1 %13, label %20, label %14

14:                                               ; preds = %11
  %15 = load ptr, ptr %5, align 8
  %16 = getelementptr inbounds i8, ptr %15, i64 0
  %17 = load i8, ptr %16, align 1
  %18 = zext i8 %17 to i32
  %19 = icmp eq i32 %18, 0
  br i1 %19, label %20, label %44

20:                                               ; preds = %14, %11
  %21 = load ptr, ptr %4, align 8
  %22 = getelementptr inbounds %struct._xmlNode, ptr %21, i32 0, i32 12
  %23 = load ptr, ptr %22, align 8
  store ptr %23, ptr %6, align 8
  br label %24

24:                                               ; preds = %39, %20
  %25 = load ptr, ptr %6, align 8
  %26 = icmp ne ptr %25, null
  br i1 %26, label %27, label %43

27:                                               ; preds = %24
  %28 = load ptr, ptr %6, align 8
  %29 = getelementptr inbounds %struct._xmlNs, ptr %28, i32 0, i32 3
  %30 = load ptr, ptr %29, align 8
  %31 = icmp eq ptr %30, null
  br i1 %31, label %32, label %39

32:                                               ; preds = %27
  %33 = load ptr, ptr %6, align 8
  %34 = getelementptr inbounds %struct._xmlNs, ptr %33, i32 0, i32 2
  %35 = load ptr, ptr %34, align 8
  %36 = icmp ne ptr %35, null
  br i1 %36, label %37, label %39

37:                                               ; preds = %32
  %38 = load ptr, ptr %6, align 8
  store ptr %38, ptr %7, align 8
  br label %43

39:                                               ; preds = %32, %27
  %40 = load ptr, ptr %6, align 8
  %41 = getelementptr inbounds %struct._xmlNs, ptr %40, i32 0, i32 0
  %42 = load ptr, ptr %41, align 8
  store ptr %42, ptr %6, align 8
  br label %24

43:                                               ; preds = %37, %24
  br label %70

44:                                               ; preds = %14
  %45 = load ptr, ptr %4, align 8
  %46 = getelementptr inbounds %struct._xmlNode, ptr %45, i32 0, i32 12
  %47 = load ptr, ptr %46, align 8
  store ptr %47, ptr %6, align 8
  br label %48

48:                                               ; preds = %65, %44
  %49 = load ptr, ptr %6, align 8
  %50 = icmp ne ptr %49, null
  br i1 %50, label %51, label %69

51:                                               ; preds = %48
  %52 = load ptr, ptr %6, align 8
  %53 = getelementptr inbounds %struct._xmlNs, ptr %52, i32 0, i32 3
  %54 = load ptr, ptr %53, align 8
  %55 = icmp ne ptr %54, null
  br i1 %55, label %56, label %65

56:                                               ; preds = %51
  %57 = load ptr, ptr %5, align 8
  %58 = load ptr, ptr %6, align 8
  %59 = getelementptr inbounds %struct._xmlNs, ptr %58, i32 0, i32 3
  %60 = load ptr, ptr %59, align 8
  %61 = call i32 @xmlStrEqual(ptr noundef %57, ptr noundef %60)
  %62 = icmp ne i32 %61, 0
  br i1 %62, label %63, label %65

63:                                               ; preds = %56
  %64 = load ptr, ptr %6, align 8
  store ptr %64, ptr %7, align 8
  br label %69

65:                                               ; preds = %56, %51
  %66 = load ptr, ptr %6, align 8
  %67 = getelementptr inbounds %struct._xmlNs, ptr %66, i32 0, i32 0
  %68 = load ptr, ptr %67, align 8
  store ptr %68, ptr %6, align 8
  br label %48

69:                                               ; preds = %63, %48
  br label %70

70:                                               ; preds = %69, %43
  %71 = load ptr, ptr %7, align 8
  store ptr %71, ptr %3, align 8
  br label %72

72:                                               ; preds = %70, %10
  %73 = load ptr, ptr %3, align 8
  ret ptr %73
}