; Function Attrs: nounwind uwtable
define hidden ptr @dom_get_nsdecl(ptr noundef readonly %0, ptr noundef %1) local_unnamed_addr #1 {
  %3 = icmp eq ptr %0, null
  br i1 %3, label %.loopexit, label %4

4:                                                ; preds = %2
  %5 = icmp eq ptr %1, null
  br i1 %5, label %9, label %6

6:                                                ; preds = %4
  %7 = load i8, ptr %1, align 1
  %8 = icmp eq i8 %7, 0
  br i1 %8, label %9, label %18

9:                                                ; preds = %6, %4
  %10 = getelementptr inbounds i8, ptr %0, i64 96
  %.01834 = load ptr, ptr %10, align 8
  %.not2535 = icmp eq ptr %.01834, null
  br i1 %.not2535, label %.loopexit, label %.lr.ph37

.lr.ph37:                                         ; preds = %9, %17
  %.01836 = phi ptr [ %.018, %17 ], [ %.01834, %9 ]
  %11 = getelementptr inbounds i8, ptr %.01836, i64 24
  %12 = load ptr, ptr %11, align 8
  %13 = icmp eq ptr %12, null
  br i1 %13, label %14, label %17

14:                                               ; preds = %.lr.ph37
  %15 = getelementptr inbounds i8, ptr %.01836, i64 16
  %16 = load ptr, ptr %15, align 8
  %.not26 = icmp eq ptr %16, null
  br i1 %.not26, label %17, label %.loopexit

17:                                               ; preds = %14, %.lr.ph37
  %.018 = load ptr, ptr %.01836, align 8
  %.not25 = icmp eq ptr %.018, null
  br i1 %.not25, label %.loopexit, label %.lr.ph37

18:                                               ; preds = %6
  %19 = getelementptr inbounds i8, ptr %0, i64 96
  %.129 = load ptr, ptr %19, align 8
  %.not30 = icmp eq ptr %.129, null
  br i1 %.not30, label %.loopexit, label %.lr.ph

.lr.ph:                                           ; preds = %18, %24
  %.131 = phi ptr [ %.1, %24 ], [ %.129, %18 ]
  %20 = getelementptr inbounds i8, ptr %.131, i64 24
  %21 = load ptr, ptr %20, align 8
  %.not23 = icmp eq ptr %21, null
  br i1 %.not23, label %24, label %22

22:                                               ; preds = %.lr.ph
  %23 = tail call i32 @xmlStrEqual(ptr noundef nonnull %1, ptr noundef nonnull %21) #16
  %.not24 = icmp eq i32 %23, 0
  br i1 %.not24, label %24, label %.loopexit

24:                                               ; preds = %22, %.lr.ph
  %.1 = load ptr, ptr %.131, align 8
  %.not = icmp eq ptr %.1, null
  br i1 %.not, label %.loopexit, label %.lr.ph

.loopexit:                                        ; preds = %22, %24, %14, %17, %18, %9, %2
  %.019 = phi ptr [ null, %2 ], [ null, %9 ], [ null, %18 ], [ %.01836, %14 ], [ null, %17 ], [ %.131, %22 ], [ null, %24 ]
  ret ptr %.019
}